target datalayout = "e-m:e-p270:32:32-p271:32:32-p272:64:64-i64:64-i128:128-f80:128-n8:16:32:64-S128"
target triple = "x86_64-pc-linux-gnu"

; Function Attrs: nounwind uwtable
define dso_local i32 @luaL_checkoption(ptr noundef %0, i32 noundef %1, ptr noundef %2, ptr noundef %3) #0 {
  %5 = alloca ptr, align 8
  %6 = alloca i32, align 4
  %7 = alloca ptr, align 8
  %8 = alloca ptr, align 8
  %9 = alloca i64, align 8
  %10 = alloca ptr, align 8
  store ptr %0, ptr %5, align 8, !tbaa !4
  store i32 %1, ptr %6, align 4, !tbaa !16
  store ptr %2, ptr %7, align 8, !tbaa !20
  store ptr %3, ptr %8, align 8, !tbaa !55
  call void @llvm.lifetime.start.p0(i64 8, ptr %9) #9
  call void @llvm.lifetime.start.p0(i64 8, ptr %10) #9
  %11 = load ptr, ptr %5, align 8, !tbaa !4
  %12 = load i32, ptr %6, align 4, !tbaa !16
  %13 = call ptr @lua_tolstring(ptr noundef %11, i32 noundef %12, ptr noundef null)
  store ptr %13, ptr %10, align 8, !tbaa !20
  %14 = load ptr, ptr %10, align 8, !tbaa !20
  %15 = icmp eq ptr %14, null
  br i1 %15, label %16, label %22

16:                                               ; preds = %4
  %17 = load ptr, ptr %7, align 8, !tbaa !20
  store ptr %17, ptr %10, align 8, !tbaa !20
  %18 = icmp eq ptr %17, null
  br i1 %18, label %19, label %22

19:                                               ; preds = %16
  %20 = load ptr, ptr %5, align 8, !tbaa !4
  %21 = load i32, ptr %6, align 4, !tbaa !16
  call void @lj_err_argt(ptr noundef %20, i32 noundef %21, i32 noundef 4) #10
  unreachable

22:                                               ; preds = %16, %4
  store i64 0, ptr %9, align 8, !tbaa !38
  br label %23

23:                                               ; preds = %41, %22
  %24 = load ptr, ptr %8, align 8, !tbaa !55
  %25 = load i64, ptr %9, align 8, !tbaa !38
  %26 = getelementptr inbounds ptr, ptr %24, i64 %25
  %27 = load ptr, ptr %26, align 8, !tbaa !20
  %28 = icmp ne ptr %27, null
  br i1 %28, label %29, label %44

29:                                               ; preds = %23
  %30 = load ptr, ptr %8, align 8, !tbaa !55
  %31 = load i64, ptr %9, align 8, !tbaa !38
  %32 = getelementptr inbounds ptr, ptr %30, i64 %31
  %33 = load ptr, ptr %32, align 8, !tbaa !20
  %34 = load ptr, ptr %10, align 8, !tbaa !20
  %35 = call i32 @strcmp(ptr noundef %33, ptr noundef %34) #11
  %36 = icmp eq i32 %35, 0
  br i1 %36, label %37, label %40

37:                                               ; preds = %29
  %38 = load i64, ptr %9, align 8, !tbaa !38
  %39 = trunc i64 %38 to i32
  call void @llvm.lifetime.end.p0(i64 8, ptr %10) #9
  call void @llvm.lifetime.end.p0(i64 8, ptr %9) #9
  ret i32 %39

40:                                               ; preds = %29
  br label %41

41:                                               ; preds = %40
  %42 = load i64, ptr %9, align 8, !tbaa !38
  %43 = add nsw i64 %42, 1
  store i64 %43, ptr %9, align 8, !tbaa !38
  br label %23, !llvm.loop !57

44:                                               ; preds = %23
  %45 = load ptr, ptr %5, align 8, !tbaa !4
  %46 = load i32, ptr %6, align 4, !tbaa !16
  %47 = load ptr, ptr %10, align 8, !tbaa !20
  call void (ptr, i32, i32, ...) @lj_err_argv(ptr noundef %45, i32 noundef %46, i32 noundef 1199, ptr noundef %47) #10
  unreachable
}