; Function Attrs: nounwind uwtable
define dso_local i32 @luaL_checkoption(ptr noundef %0, i32 noundef %1, ptr noundef %2, ptr noundef readonly captures(none) %3) local_unnamed_addr #1 {
  %5 = tail call ptr @lua_tolstring(ptr noundef %0, i32 noundef %1, ptr noundef null)
  %6 = icmp eq ptr %5, null
  br i1 %6, label %7, label %10

7:                                                ; preds = %4
  %8 = icmp eq ptr %2, null
  br i1 %8, label %9, label %10

9:                                                ; preds = %7
  tail call void @lj_err_argt(ptr noundef %0, i32 noundef %1, i32 noundef 4) #14
  unreachable

10:                                               ; preds = %7, %4
  %.0 = phi ptr [ %2, %7 ], [ %5, %4 ]
  %11 = load ptr, ptr %3, align 8, !tbaa !25
  %.not20 = icmp eq ptr %11, null
  br i1 %.not20, label %._crit_edge, label %.lr.ph

.lr.ph:                                           ; preds = %10, %17
  %12 = phi ptr [ %20, %17 ], [ %11, %10 ]
  %.01521 = phi i64 [ %18, %17 ], [ 0, %10 ]
  %13 = tail call i32 @strcmp(ptr noundef nonnull dereferenceable(1) %12, ptr noundef nonnull dereferenceable(1) %.0) #15
  %14 = icmp eq i32 %13, 0
  br i1 %14, label %15, label %17

15:                                               ; preds = %.lr.ph
  %16 = trunc i64 %.01521 to i32
  ret i32 %16

17:                                               ; preds = %.lr.ph
  %18 = add nuw nsw i64 %.01521, 1
  %19 = getelementptr inbounds nuw ptr, ptr %3, i64 %18
  %20 = load ptr, ptr %19, align 8, !tbaa !25
  %.not = icmp eq ptr %20, null
  br i1 %.not, label %._crit_edge, label %.lr.ph, !llvm.loop !42

._crit_edge:                                      ; preds = %17, %10
  tail call void (ptr, i32, i32, ...) @lj_err_argv(ptr noundef %0, i32 noundef %1, i32 noundef 1199, ptr noundef nonnull %.0) #14
  unreachable
}